MPASM 5.71              NEWPIC_8B_SIMPLE.ASM   3-10-2017  21:06:38         PAGE  1


LOC  OBJECT CODE     LINE SOURCE TEXT
  VALUE

                      00001         LIST    p=16F84A
Message[303]: Program word too large.  Truncated to core size. (FF18)
2007   3F18           00002         __CONFIG        03FF18
  00000003            00003 status  equ     03h
  00000006            00004 portb   equ     06h
  00000006            00005 trisb   equ     06h
  0000002F            00006 value   equ     0x2F
  00000010            00007 n       set     b'00010000'
  00000009            00008 flag    equ     0x09
  00000014            00009 L1      EQU     0X14
  00000015            00010 L2      EQU     0X15
                      00011 
                      00012         org 0
0000   0186           00013         clrf    portb
0001   1683           00014         bsf     status,5
0002   0186           00015         clrf    trisb
0003   1283           00016         bcf     status,5
0004   1786           00017         bsf     portb,7
                      00018 
                      00019 
0005   1B86           00020 click   btfsc       portb,7
0006   2???           00021         goto        continue 
0007   2???           00022         goto    change
0008                  00023 change
0008   1809           00024         btfsc   flag,0
Message[305]: Using default destination of 1 (file).
0009   0A89           00025         incf    flag
Message[305]: Using default destination of 1 (file).
000A   0389           00026         decf    flag
                      00027 
000B   1786           00028         bsf     portb,7
                      00029 
000C                  00030 continue:
000C   1C09           00031         btfss   flag,0
000D   2???           00032         goto    loop_right
000E   2???           00033         goto    loop_left
000F                  00034 init:
000F   3001           00035         movlw   1
0010   00AF           00036         movwf   value
0011   3001           00037         movlw   1
0012   0089           00038         movwf   flag
0013                  00039 loop_right:
0013   2???           00040         call    delay
0014   082F           00041         movf    value,0
0015   0086           00042         movwf   portb
0016   1003           00043         bcf     status,0
0017   0DAF           00044         rlf     value,1
0018   1103           00045         bcf     status,2
0019   082F           00046         movf    value,0
001A   3C10           00047         sublw   n
001B   1D03           00048         btfss   status,2
001C   2???           00049         goto    loop_right
001D   2???           00050         goto    init
MPASM 5.71              NEWPIC_8B_SIMPLE.ASM   3-10-2017  21:06:38         PAGE  2


LOC  OBJECT CODE     LINE SOURCE TEXT
  VALUE

001E                  00051 loop_left:
001E   2???           00052         call    delay
001F   082F           00053         movf    value,0
0020   0086           00054         movwf   portb
0021   1003           00055         bcf     status,0
0022   0CAF           00056         rrf     value,1
0023   1103           00057         bcf     status,2
0024   082F           00058         movf    value,0
0025   3C00           00059         sublw   0
0026   1D03           00060         btfss   status,2
0027   2???           00061         goto    loop_left
0028   2???           00062         goto    init
                      00063 
                      00064 
                      00065 
                      00066 
                      00067 
                      00068 
                      00069 
                      00070 
                      00071 
                      00072 
                      00073 
                      00074 
0029                  00075 delay:
                      00076                                  
0029   3050           00077      MOVLW 50                       
002A   0095           00078      MOVWF L2                    
Warning[207]: Found label after column 1. (LOOP2)
002B                  00079  LOOP2
Warning[202]: Argument out of range.  Least significant bits used.
002B   3055           00080      MOVLW 255                  
002C   0094           00081      MOVWF L1                    
Warning[207]: Found label after column 1. (LOOP1)
002D                  00082  LOOP1
002D   0B94           00083      decfsz L1,F                    
002E   2???           00084          GOTO LOOP1                
002F   0B95           00085      decfsz L2,F                    
0030   2???           00086          GOTO LOOP2                
0031   0008           00087      Return
Message[303]: Program word too large.  Truncated to core size. (FF18)
3F18                  00088         end
MPASM 5.71              NEWPIC_8B_SIMPLE.ASM   3-10-2017  21:06:38         PAGE  3


SYMBOL TABLE
  LABEL                             VALUE 

L1                                00000014
L2                                00000015
LOOP1                             0000002D
LOOP2                             0000002B
__16F84A                          00000001
change                            00000008
click                             00000005
continue                          0000000C
delay                             00000029
flag                              00000009
init                              0000000F
loop_left                         0000001E
loop_right                        00000013
n                                 00000010
portb                             00000006
status                            00000003
trisb                             00000006
value                             0000002F

Errors   :     0
Warnings :     3 reported,     0 suppressed
Messages :     4 reported,     0 suppressed

