MPASM 5.71                           LB6.ASM   3-12-2017  13:58:07         PAGE  1


LOC  OBJECT CODE     LINE SOURCE TEXT
  VALUE

                      00001         LIST    p=16F84A
Message[303]: Program word too large.  Truncated to core size. (FF18)
2007   3F18           00002         __CONFIG        03FF18
  00000003            00003 status  equ     03h
  00000005            00004 porta   equ     05h
  00000005            00005 trisa   equ     05h
  00000006            00006 portb   equ     06h
  00000006            00007 trisb   equ     06h
  00000081            00008 OPTION_REG      equ     81
                      00009 
                      00010         org 0
0000   1683           00011 Start   bsf     status,5
                      00012 
0001   3010           00013         movlw   0x10
0002   0085           00014         movwf   trisa
                      00015 
0003   30F8           00016         movlw   0xf8
0004   0086           00017         movwf   trisb
                      00018                         
Message[302]: Register in operand not in bank 0.  Ensure that bank bits are correct.
0005   1381           00019         bcf     OPTION_REG,7
0006   1283           00020         bcf     status,5
                      00021 
0007   0185           00022         clrf    porta
0008   0186           00023         clrf    portb
                      00024 
0009   1006           00025 Column1 bcf     portb,0
000A   1486           00026         bsf     portb,1
000B   1506           00027         bsf     portb,2
                      00028                         
000C   1986           00029 Check1  btfsc   portb,3
000D   2???           00030         goto    Check4
                      00031 
000E   3003           00032         movlw   .3
000F   0085           00033         movwf   porta
                      00034                         
0010   1A06           00035 Check4  btfsc   portb,4
0011   2???           00036         goto    Check7
                      00037 
0012   3006           00038         movlw   .6
0013   0085           00039         movwf   porta
                      00040                         
0014   1A86           00041 Check7  btfsc   portb,5
0015   2???           00042         goto    Check11
                      00043 
0016   3009           00044         movlw   .9
0017   0085           00045         movwf   porta
                      00046                 
0018   1B06           00047 Check11 btfsc   portb,6
0019   2???           00048         goto    Column2
                      00049 
001A   300B           00050         movlw   .11
001B   0085           00051         movwf   porta
MPASM 5.71                           LB6.ASM   3-12-2017  13:58:07         PAGE  2


LOC  OBJECT CODE     LINE SOURCE TEXT
  VALUE

                      00052                                 
001C   1406           00053 Column2 bsf     portb,0
001D   1086           00054         bcf     portb,1
001E   1506           00055         bsf     portb,2
                      00056                         
001F   1986           00057 Check2  btfsc   portb,3
0020   2???           00058         goto    Check5
                      00059 
0021   3002           00060         movlw   .2
0022   0085           00061         movwf   porta
                      00062                         
0023   1A06           00063 Check5  btfsc   portb,4
0024   2???           00064         goto    Check8
                      00065 
0025   3005           00066         movlw   .5
0026   0085           00067         movwf   porta
                      00068                         
0027   1A86           00069 Check8  btfsc   portb,5
0028   2???           00070         goto    Check12
                      00071 
0029   3008           00072         movlw   .8
002A   0085           00073         movwf   porta
                      00074                 
002B   1B06           00075 Check12 btfsc   portb,6
002C   2???           00076         goto    Column3
                      00077 
002D   3000           00078         movlw   .0
002E   0085           00079         movwf   porta
                      00080 
002F   1406           00081 Column3 bsf     portb,0
0030   1486           00082         bsf     portb,1
0031   1106           00083         bcf     portb,2
                      00084                         
0032   1986           00085 Check3  btfsc   portb,3
0033   2???           00086         goto    Check6
                      00087 
0034   3001           00088         movlw   .1
0035   0085           00089         movwf   porta
                      00090                         
0036   1A06           00091 Check6  btfsc   portb,4
0037   2???           00092         goto    Check9
                      00093 
0038   3004           00094         movlw   .4
0039   0085           00095         movwf   porta
                      00096                         
003A   1A86           00097 Check9  btfsc   portb,5
003B   2???           00098         goto    Check13
                      00099 
003C   3007           00100         movlw   .7
003D   0085           00101         movwf   porta
                      00102                 
003E   1B06           00103 Check13 btfsc   portb,6
003F   2???           00104         goto    Column1
MPASM 5.71                           LB6.ASM   3-12-2017  13:58:07         PAGE  3


LOC  OBJECT CODE     LINE SOURCE TEXT
  VALUE

                      00105 
0040   300F           00106         movlw   .15
0041   0085           00107         movwf   porta
                      00108                 
0042   2???           00109         goto    Column1
                      00110 
Message[303]: Program word too large.  Truncated to core size. (FF18)
3F18                  00111         end
MPASM 5.71                           LB6.ASM   3-12-2017  13:58:07         PAGE  4


SYMBOL TABLE
  LABEL                             VALUE 

Check1                            0000000C
Check11                           00000018
Check12                           0000002B
Check13                           0000003E
Check2                            0000001F
Check3                            00000032
Check4                            00000010
Check5                            00000023
Check6                            00000036
Check7                            00000014
Check8                            00000027
Check9                            0000003A
Column1                           00000009
Column2                           0000001C
Column3                           0000002F
OPTION_REG                        00000081
Start                             00000000
__16F84A                          00000001
__DEBUG                           
__MPLAB_DEBUGGER_SIMULATOR        1
porta                             00000005
portb                             00000006
status                            00000003
trisa                             00000005
trisb                             00000006

Errors   :     0
Warnings :     0 reported,     0 suppressed
Messages :     3 reported,     0 suppressed

