MPASM 5.71              NEWPIC_8B_SIMPLE.ASM   3-10-2017  2:38:08         PAGE  1


LOC  OBJECT CODE     LINE SOURCE TEXT
  VALUE

                      00001         LIST    p=16F84A
Message[303]: Program word too large.  Truncated to core size. (FF18)
2007   3F18           00002         __CONFIG        03FF18
  00000003            00003 status  equ     03h
  00000006            00004 portb   equ     06h
  00000006            00005 trisb   equ     06h
  0000002F            00006 value   equ     0x2F
  00000010            00007 n       set     b'00010000'
Warning[207]: Found label after column 1. (L1)
  00000014            00008  L1        EQU 0X14
Warning[207]: Found label after column 1. (L2)
  00000015            00009  L2         EQU 0X15
                      00010 
                      00011         org 0
0000   0186           00012         clrf    portb
0001   1683           00013         bsf     status,5
0002   0186           00014         clrf    trisb
0003   1283           00015         bcf     status,5
0004                  00016 init:
0004   3001           00017         movlw   0x1
0005   00AF           00018         movwf   value
0006                  00019 loop1:
0006   2???           00020         call    delay
0007   082F           00021         movf    value,0
0008   0086           00022         movwf   portb
0009   1003           00023         bcf     status,0
000A   0DAF           00024         rlf     value,1
000B   1103           00025         bcf     status,2
000C   082F           00026         movf    value,0
000D   3C10           00027         sublw   n
000E   1D03           00028         btfss   status,2
000F   2???           00029         goto    loop1
0010                  00030 loop2:
0010   2???           00031         call    delay
0011   082F           00032         movf    value,0
0012   0086           00033         movwf   portb
0013   1003           00034         bcf     status,0
0014   0CAF           00035         rrf     value,1
0015   1103           00036         bcf     status,2
0016   082F           00037         movf    value,0
0017   3C00           00038         sublw   0
0018   1D03           00039         btfss   status,2
0019   2???           00040         goto    loop2
001A   2???           00041         goto    init
                      00042 
001B                  00043 delay:
                      00044                                  ; Time Delay Routines
001B   3050           00045      MOVLW 50                        ; Copy 50 to W
001C   0095           00046      MOVWF L2                    ; Copy W into L2
Warning[207]: Found label after column 1. (LOOP2)
001D                  00047  LOOP2
Warning[202]: Argument out of range.  Least significant bits used.
001D   3055           00048      MOVLW 255                   ; Copy 255 into W
MPASM 5.71              NEWPIC_8B_SIMPLE.ASM   3-10-2017  2:38:08         PAGE  2


LOC  OBJECT CODE     LINE SOURCE TEXT
  VALUE

001E   0094           00049      MOVWF L1                    ; Copy W into L1
Warning[207]: Found label after column 1. (LOOP1)
001F                  00050  LOOP1
001F   0B94           00051      decfsz L1,F                    ; Decrement L1. If 0 Skip next instruction
0020   2???           00052          GOTO LOOP1                ; ELSE Keep counting down
0021   0B95           00053      decfsz L2,F                    ; Decrement L2. If 0 Skip next instruction
0022   2???           00054          GOTO LOOP2                ; ELSE Keep counting down
0023   0008           00055      Return
Message[303]: Program word too large.  Truncated to core size. (FF18)
3F18                  00056         end
MPASM 5.71              NEWPIC_8B_SIMPLE.ASM   3-10-2017  2:38:08         PAGE  3


SYMBOL TABLE
  LABEL                             VALUE 

L1                                00000014
L2                                00000015
LOOP1                             0000001F
LOOP2                             0000001D
__16F84A                          00000001
__DEBUG                           
__MPLAB_DEBUGGER_SIMULATOR        1
delay                             0000001B
init                              00000004
loop1                             00000006
loop2                             00000010
n                                 00000010
portb                             00000006
status                            00000003
trisb                             00000006
value                             0000002F

Errors   :     0
Warnings :     5 reported,     0 suppressed
Messages :     2 reported,     0 suppressed

