MPASM 5.71              NEWPIC_8B_SIMPLE.ASM   3-10-2017  22:12:37         PAGE  1


LOC  OBJECT CODE     LINE SOURCE TEXT
  VALUE

                      00001         LIST    p=16F84A
Message[303]: Program word too large.  Truncated to core size. (FF18)
2007   3F18           00002         __CONFIG        03FF18
  00000003            00003 status  equ     03h
  00000006            00004 portb   equ     06h
  00000006            00005 trisb   equ     06h
  0000002F            00006 value   equ     0x2F
  00000010            00007 n       set     b'00010000'
  00000009            00008 flag    equ     0x09
  00000014            00009 L1      EQU     0X14
  00000015            00010 L2      EQU     0X15
                      00011 
                      00012         org 0
0000   0186           00013         clrf    portb
0001   1683           00014         bsf     status,5
0002   0186           00015         clrf    trisb
0003   1283           00016         bcf     status,5
0004   1786           00017         bsf     portb,7
0005   3000           00018         movlw   0
0006   0089           00019         movwf   flag
0007   3001           00020         movlw   1
0008   00AF           00021         movwf   value
                      00022 
0009   1B86           00023 click   btfsc       portb,7
000A   2???           00024         goto        continue 
000B   2???           00025         goto    change
000C                  00026 change
                      00027 ;m2     btfss       portb,7
                      00028 ;       goto    m2
000C   1C09           00029         btfss   flag,0
Message[305]: Using default destination of 1 (file).
000D   0A89           00030         incf    flag
Message[305]: Using default destination of 1 (file).
000E   0389           00031         decf    flag
000F   1786           00032         bsf     portb,7
                      00033 
0010                  00034 continue:
0010   1809           00035         btfsc   flag,0
0011   2???           00036         goto    loop_right
0012   2???           00037         goto    loop_left
                      00038 
0013                  00039 loop_right:
                      00040         ;call   delay
0013   082F           00041         movf    value,0
0014   0086           00042         movwf   portb
0015   1003           00043         bcf     status,0
0016   1386           00044         bcf     portb,7
0017   0DAF           00045         rlf     value,1
0018   1786           00046         bsf     portb,7
0019   1103           00047         bcf     status,2
001A   082F           00048         movf    value,0
001B   3C10           00049         sublw   n
001C   1D03           00050         btfss   status,2
MPASM 5.71              NEWPIC_8B_SIMPLE.ASM   3-10-2017  22:12:37         PAGE  2


LOC  OBJECT CODE     LINE SOURCE TEXT
  VALUE

001D   2???           00051         goto    click
001E   2???           00052         goto    init_start
001F                  00053 loop_left:
                      00054         ;call   delay
001F   082F           00055         movf    value,0
0020   0086           00056         movwf   portb
0021   1003           00057         bcf     status,0
0022   1386           00058         bcf     portb,7
0023   0CAF           00059         rrf     value,1
                      00060         ;bsf    portb,7
0024   1103           00061         bcf     status,2
0025   082F           00062         movf    value,0
0026   3C00           00063         sublw   0
0027   1D03           00064         btfss   status,2
0028   2???           00065         goto    click
0029   2???           00066         goto    init_end
                      00067 
                      00068 
002A                  00069 init_start
002A   3001           00070         movlw   1
002B   00AF           00071         movwf   value
002C   2???           00072         goto    loop_right
002D                  00073 init_end
002D   3008           00074         movlw   b'00001000'
002E   00AF           00075         movwf   value
002F   2???           00076         goto    loop_left
                      00077 
                      00078 
                      00079 
                      00080 
                      00081 
                      00082 
                      00083 
                      00084 
0030                  00085 delay:
                      00086                                  
0030   3050           00087      MOVLW 50                       
0031   0095           00088      MOVWF L2                    
Warning[207]: Found label after column 1. (LOOP2)
0032                  00089  LOOP2
Warning[202]: Argument out of range.  Least significant bits used.
0032   3055           00090      MOVLW 255                  
0033   0094           00091      MOVWF L1                    
Warning[207]: Found label after column 1. (LOOP1)
0034                  00092  LOOP1
0034   0B94           00093      decfsz L1,F                    
0035   2???           00094          GOTO LOOP1                
0036   0B95           00095      decfsz L2,F                    
0037   2???           00096          GOTO LOOP2                
0038   0008           00097      Return
Message[303]: Program word too large.  Truncated to core size. (FF18)
3F18                  00098         end
MPASM 5.71              NEWPIC_8B_SIMPLE.ASM   3-10-2017  22:12:37         PAGE  3


SYMBOL TABLE
  LABEL                             VALUE 

L1                                00000014
L2                                00000015
LOOP1                             00000034
LOOP2                             00000032
__16F84A                          00000001
__DEBUG                           
__MPLAB_DEBUGGER_SIMULATOR        1
change                            0000000C
click                             00000009
continue                          00000010
delay                             00000030
flag                              00000009
init_end                          0000002D
init_start                        0000002A
loop_left                         0000001F
loop_right                        00000013
n                                 00000010
portb                             00000006
status                            00000003
trisb                             00000006
value                             0000002F

Errors   :     0
Warnings :     3 reported,     0 suppressed
Messages :     4 reported,     0 suppressed

